; Function Attrs: nounwind uwtable
define range(i32 0, 2) i32 @Bnd_ManCheckExtBound(ptr noundef readonly captures(none) %0, ptr noundef readonly captures(none) %1, ptr noundef readonly captures(none) %2) local_unnamed_addr #1 {
  %4 = getelementptr i8, ptr %0, i64 24
  %.val25 = load i32, ptr %4, align 8
  %5 = tail call noalias dereferenceable_or_null(16) ptr @malloc(i64 noundef 16) #18
  %6 = add i32 %.val25, -1
  %or.cond.i = icmp ult i32 %6, 15
  %spec.store.select.i = select i1 %or.cond.i, i32 16, i32 %.val25
  %7 = getelementptr inbounds nuw i8, ptr %5, i64 4
  store i32 0, ptr %7, align 4
  store i32 %spec.store.select.i, ptr %5, align 8
  %.not.i = icmp eq i32 %spec.store.select.i, 0
  br i1 %.not.i, label %Vec_IntAlloc.exit.thread, label %Vec_IntAlloc.exit

Vec_IntAlloc.exit:                                ; preds = %3
  %8 = sext i32 %spec.store.select.i to i64
  %9 = shl nsw i64 %8, 2
  %10 = tail call noalias ptr @malloc(i64 noundef %9) #18
  %11 = getelementptr inbounds nuw i8, ptr %5, i64 8
  store ptr %10, ptr %11, align 8
  %.not.i.i = icmp slt i32 %spec.store.select.i, %.val25
  br i1 %.not.i.i, label %15, label %Vec_IntGrow.exit.i

Vec_IntAlloc.exit.thread:                         ; preds = %3
  %12 = getelementptr inbounds nuw i8, ptr %5, i64 8
  store ptr null, ptr %12, align 8
  %.not.i.i33 = icmp sgt i32 %.val25, 0
  br i1 %.not.i.i33, label %.thread, label %Vec_IntFill.exit

.thread:                                          ; preds = %Vec_IntAlloc.exit.thread
  %13 = zext nneg i32 %.val25 to i64
  %14 = shl nuw nsw i64 %13, 2
  br label %20

15:                                               ; preds = %Vec_IntAlloc.exit
  %.not9.i.i = icmp eq ptr %10, null
  %16 = sext i32 %.val25 to i64
  %17 = shl nsw i64 %16, 2
  br i1 %.not9.i.i, label %20, label %18

18:                                               ; preds = %15
  %19 = tail call ptr @realloc(ptr noundef nonnull %10, i64 noundef %17) #19
  br label %24

20:                                               ; preds = %.thread, %15
  %21 = phi i64 [ %14, %.thread ], [ %17, %15 ]
  %22 = phi ptr [ %12, %.thread ], [ %11, %15 ]
  %23 = tail call noalias ptr @malloc(i64 noundef %21) #18
  br label %24

24:                                               ; preds = %20, %18
  %25 = phi ptr [ %11, %18 ], [ %22, %20 ]
  %26 = phi ptr [ %19, %18 ], [ %23, %20 ]
  store ptr %26, ptr %25, align 8
  store i32 %.val25, ptr %5, align 8
  br label %Vec_IntGrow.exit.i

Vec_IntGrow.exit.i:                               ; preds = %24, %Vec_IntAlloc.exit
  %27 = phi ptr [ %25, %24 ], [ %11, %Vec_IntAlloc.exit ]
  %28 = icmp sgt i32 %.val25, 0
  br i1 %28, label %.lr.ph.i, label %Vec_IntFill.exit

.lr.ph.i:                                         ; preds = %Vec_IntGrow.exit.i
  %wide.trip.count.i = zext nneg i32 %.val25 to i64
  br label %29

29:                                               ; preds = %29, %.lr.ph.i
  %indvars.iv.i = phi i64 [ 0, %.lr.ph.i ], [ %indvars.iv.next.i, %29 ]
  %30 = load ptr, ptr %27, align 8
  %31 = getelementptr inbounds nuw i32, ptr %30, i64 %indvars.iv.i
  store i32 0, ptr %31, align 4
  %indvars.iv.next.i = add nuw nsw i64 %indvars.iv.i, 1
  %exitcond.not.i = icmp eq i64 %indvars.iv.next.i, %wide.trip.count.i
  br i1 %exitcond.not.i, label %Vec_IntFill.exit, label %29, !llvm.loop !7

Vec_IntFill.exit:                                 ; preds = %29, %Vec_IntAlloc.exit.thread, %Vec_IntGrow.exit.i
  %32 = phi ptr [ %27, %Vec_IntGrow.exit.i ], [ %12, %Vec_IntAlloc.exit.thread ], [ %27, %29 ]
  store i32 %.val25, ptr %7, align 4
  %33 = getelementptr i8, ptr %2, i64 4
  %.val2735 = load i32, ptr %33, align 4
  %34 = icmp sgt i32 %.val2735, 0
  br i1 %34, label %.lr.ph, label %.critedge.preheader

.lr.ph:                                           ; preds = %Vec_IntFill.exit
  %35 = getelementptr i8, ptr %2, i64 8
  br label %40

.critedge.preheader:                              ; preds = %40, %Vec_IntFill.exit
  %36 = getelementptr i8, ptr %0, i64 32
  %37 = getelementptr i8, ptr %1, i64 4
  %.val2637 = load i32, ptr %37, align 4
  %38 = icmp sgt i32 %.val2637, 0
  br i1 %38, label %.lr.ph39, label %.critedge2

.lr.ph39:                                         ; preds = %.critedge.preheader
  %39 = getelementptr i8, ptr %1, i64 8
  br label %45

40:                                               ; preds = %.lr.ph, %40
  %indvars.iv = phi i64 [ 0, %.lr.ph ], [ %indvars.iv.next, %40 ]
  %.val30 = load ptr, ptr %35, align 8
  %41 = getelementptr inbounds nuw i32, ptr %.val30, i64 %indvars.iv
  %42 = load i32, ptr %41, align 4
  tail call fastcc void @Vec_IntSetEntry(ptr noundef nonnull %5, i32 noundef %42, i32 noundef 2)
  %indvars.iv.next = add nuw nsw i64 %indvars.iv, 1
  %.val27 = load i32, ptr %33, align 4
  %43 = sext i32 %.val27 to i64
  %44 = icmp slt i64 %indvars.iv.next, %43
  br i1 %44, label %40, label %.critedge.preheader, !llvm.loop !25

45:                                               ; preds = %.lr.ph39, %.critedge
  %.val2645 = phi i32 [ %.val2637, %.lr.ph39 ], [ %.val26, %.critedge ]
  %indvars.iv42 = phi i64 [ 0, %.lr.ph39 ], [ %indvars.iv.next43, %.critedge ]
  %.val29 = load ptr, ptr %39, align 8
  %46 = getelementptr inbounds nuw i32, ptr %.val29, i64 %indvars.iv42
  %47 = load i32, ptr %46, align 4
  %.val28 = load ptr, ptr %32, align 8
  %48 = sext i32 %47 to i64
  %49 = getelementptr inbounds i32, ptr %.val28, i64 %48
  %50 = load i32, ptr %49, align 4
  %51 = icmp eq i32 %50, 2
  br i1 %51, label %.critedge, label %52

52:                                               ; preds = %45
  %.val31 = load ptr, ptr %36, align 8
  %53 = getelementptr inbounds %struct.Gia_Obj_t_, ptr %.val31, i64 %48
  %54 = tail call i32 @Bnd_CheckFlagRec(ptr noundef %0, ptr noundef %53, ptr noundef nonnull %5)
  %.not = icmp eq i32 %54, 0
  br i1 %.not, label %.critedge2, label %..critedge_crit_edge

..critedge_crit_edge:                             ; preds = %52
  %.val26.pre = load i32, ptr %37, align 4
  br label %.critedge

.critedge:                                        ; preds = %..critedge_crit_edge, %45
  %.val26 = phi i32 [ %.val26.pre, %..critedge_crit_edge ], [ %.val2645, %45 ]
  %indvars.iv.next43 = add nuw nsw i64 %indvars.iv42, 1
  %55 = sext i32 %.val26 to i64
  %56 = icmp slt i64 %indvars.iv.next43, %55
  br i1 %56, label %45, label %.critedge2, !llvm.loop !26

.critedge2:                                       ; preds = %.critedge, %52, %.critedge.preheader
  %.024 = phi i32 [ 1, %.critedge.preheader ], [ 0, %52 ], [ 1, %.critedge ]
  %57 = load ptr, ptr %32, align 8
  %.not.i32 = icmp eq ptr %57, null
  br i1 %.not.i32, label %Vec_IntFree.exit, label %58

58:                                               ; preds = %.critedge2
  tail call void @free(ptr noundef nonnull %57) #20
  br label %Vec_IntFree.exit

Vec_IntFree.exit:                                 ; preds = %.critedge2, %58
  tail call void @free(ptr noundef nonnull %5) #20
  ret i32 %.024
}